; Function Attrs: mustprogress nofree norecurse nosync nounwind willreturn memory(argmem: write) uwtable
define hidden void @_ZN10DFSClosureC2EP9EdgeStoreP12ObjectBitSetIL8MEMFLAGS16EEPK4Edge(ptr nocapture noundef nonnull writeonly align 8 dereferenceable(57) %0, ptr noundef %1, ptr noundef %2, ptr noundef %3) unnamed_addr #2 align 2 {
  %5 = getelementptr inbounds i8, ptr %0, i64 8
  store ptr null, ptr %5, align 8
  store ptr getelementptr inbounds inrange(-16, 64) (i8, ptr @_ZTV10DFSClosure, i64 16), ptr %0, align 8
  %6 = getelementptr inbounds i8, ptr %0, i64 16
  store ptr %1, ptr %6, align 8
  %7 = getelementptr inbounds i8, ptr %0, i64 24
  store ptr %2, ptr %7, align 8
  %8 = getelementptr inbounds i8, ptr %0, i64 32
  store ptr %3, ptr %8, align 8
  %9 = getelementptr inbounds i8, ptr %0, i64 40
  store i64 4000, ptr %9, align 8
  %10 = getelementptr inbounds i8, ptr %0, i64 48
  store i64 0, ptr %10, align 8
  %11 = getelementptr inbounds i8, ptr %0, i64 56
  store i8 0, ptr %11, align 8
  ret void
}